target datalayout = "e-m:e-p270:32:32-p271:32:32-p272:64:64-i64:64-i128:128-f80:128-n8:16:32:64-S128"
target triple = "x86_64-unknown-linux-gnu"

%struct.CPUClass = type { %struct.DeviceClass, ptr, ptr, ptr, ptr, ptr, ptr, ptr, ptr, ptr, ptr, ptr, ptr, ptr, ptr, ptr, ptr, ptr, ptr, ptr, ptr, ptr, i32, i32, i8 }
%struct.DeviceClass = type { %struct.ObjectClass, [1 x i64], ptr, ptr, ptr, i8, i8, ptr, ptr, ptr, ptr, ptr }
%struct.ObjectClass = type { ptr, ptr, [4 x ptr], [4 x ptr], ptr, ptr }
%struct.SysemuCPUOps = type { ptr, ptr, ptr, ptr, ptr, ptr, ptr, ptr, ptr, ptr, ptr, ptr }
%struct.MemTxAttrs = type { i32 }
%struct.CPUState = type { %struct.DeviceState, ptr, i32, i32, ptr, i32, i8, i8, ptr, i8, i8, i8, i8, i8, i8, i8, i8, i32, i32, i32, i32, i64, i64, i64, [1 x %struct.__jmp_buf_tag], %struct.QemuMutex, %struct.anon, ptr, i32, ptr, ptr, ptr, ptr, i32, i32, %union.anon, %union.anon.0, %union.anon.1, ptr, ptr, i64, i32, ptr, ptr, ptr, i32, i64, i32, %struct.QemuLockCnt, [1 x i64], ptr, i32, i32, i32, i32, i32, ptr, i8, i8, i64, i8, i8, ptr, [8 x i8], [0 x i8], %struct.CPUNegativeOffsetState }
%struct.DeviceState = type { %struct.Object, ptr, ptr, i8, i8, i64, ptr, i32, i8, ptr, %struct.NamedGPIOListHead, %struct.NamedClockListHead, %struct.BusStateHead, i32, i32, i32, %struct.ResettableState, ptr, %struct.MemReentrancyGuard }
%struct.Object = type { ptr, ptr, ptr, i32, ptr }
%struct.NamedGPIOListHead = type { ptr }
%struct.NamedClockListHead = type { ptr }
%struct.BusStateHead = type { ptr }
%struct.ResettableState = type { i32, i8, i8 }
%struct.MemReentrancyGuard = type { i8 }
%struct.__jmp_buf_tag = type { [8 x i64], i32, %struct.__sigset_t }
%struct.__sigset_t = type { [16 x i64] }
%struct.QemuMutex = type { %union.pthread_mutex_t, i8 }
%union.pthread_mutex_t = type { %struct.__pthread_mutex_s }
%struct.__pthread_mutex_s = type { i32, i32, i32, i32, i32, i16, i16, %struct.__pthread_internal_list }
%struct.__pthread_internal_list = type { ptr, ptr }
%struct.anon = type { ptr, ptr }
%union.anon = type { %struct.QTailQLink }
%struct.QTailQLink = type { ptr, ptr }
%union.anon.0 = type { %struct.QTailQLink }
%union.anon.1 = type { %struct.QTailQLink }
%struct.QemuLockCnt = type { i32 }
%struct.CPUNegativeOffsetState = type { %struct.CPUTLB, %union.IcountDecr, i8, [11 x i8] }
%struct.CPUTLB = type { %struct.CPUTLBCommon, [16 x %struct.CPUTLBDesc], [16 x %struct.CPUTLBDescFast] }
%struct.CPUTLBCommon = type { %struct.QemuSpin, i16, i64, i64, i64 }
%struct.QemuSpin = type { i32 }
%struct.CPUTLBDesc = type { i64, i64, i64, i64, i64, i64, [8 x %union.CPUTLBEntry], [8 x %struct.CPUTLBEntryFull], ptr }
%union.CPUTLBEntry = type { %struct.anon.2 }
%struct.anon.2 = type { i64, i64, i64, i64 }
%struct.CPUTLBEntryFull = type { i64, i64, %struct.MemTxAttrs, i8, i8, [3 x i8], %union.anon.3 }
%union.anon.3 = type { %struct.anon.4 }
%struct.anon.4 = type { i8, i8, i8 }
%struct.CPUTLBDescFast = type { i64, ptr }
%union.IcountDecr = type { i32 }

@.str = private unnamed_addr constant [29 x i8] c"../qemu/hw/core/cpu-sysemu.c\00", align 1
@.str.2 = private unnamed_addr constant [32 x i8] c"ret < cpu->num_ases && ret >= 0\00", align 1
@__PRETTY_FUNCTION__.cpu_asidx_from_attrs = private unnamed_addr constant [49 x i8] c"int cpu_asidx_from_attrs(CPUState *, MemTxAttrs)\00", align 1

; Function Attrs: nounwind sspstrong uwtable
define dso_local i32 @cpu_asidx_from_attrs(ptr noundef %cpu, i32 %attrs.coerce) #0 {
entry:
  %attrs = alloca %struct.MemTxAttrs, align 4
  %cpu.addr = alloca ptr, align 8
  %ret = alloca i32, align 4
  %coerce.dive = getelementptr inbounds %struct.MemTxAttrs, ptr %attrs, i32 0, i32 0
  store i32 %attrs.coerce, ptr %coerce.dive, align 4
  store ptr %cpu, ptr %cpu.addr, align 8
  store i32 0, ptr %ret, align 4
  %0 = load ptr, ptr %cpu.addr, align 8
  %cc = getelementptr inbounds %struct.CPUState, ptr %0, i32 0, i32 1
  %1 = load ptr, ptr %cc, align 16
  %sysemu_ops = getelementptr inbounds %struct.CPUClass, ptr %1, i32 0, i32 19
  %2 = load ptr, ptr %sysemu_ops, align 8
  %asidx_from_attrs = getelementptr inbounds %struct.SysemuCPUOps, ptr %2, i32 0, i32 4
  %3 = load ptr, ptr %asidx_from_attrs, align 8
  %tobool = icmp ne ptr %3, null
  br i1 %tobool, label %if.then, label %if.end7

if.then:                                          ; preds = %entry
  %4 = load ptr, ptr %cpu.addr, align 8
  %cc1 = getelementptr inbounds %struct.CPUState, ptr %4, i32 0, i32 1
  %5 = load ptr, ptr %cc1, align 16
  %sysemu_ops2 = getelementptr inbounds %struct.CPUClass, ptr %5, i32 0, i32 19
  %6 = load ptr, ptr %sysemu_ops2, align 8
  %asidx_from_attrs3 = getelementptr inbounds %struct.SysemuCPUOps, ptr %6, i32 0, i32 4
  %7 = load ptr, ptr %asidx_from_attrs3, align 8
  %8 = load ptr, ptr %cpu.addr, align 8
  %coerce.dive4 = getelementptr inbounds %struct.MemTxAttrs, ptr %attrs, i32 0, i32 0
  %9 = load i32, ptr %coerce.dive4, align 4
  %call = call i32 %7(ptr noundef %8, i32 %9)
  store i32 %call, ptr %ret, align 4
  %10 = load i32, ptr %ret, align 4
  %11 = load ptr, ptr %cpu.addr, align 8
  %num_ases = getelementptr inbounds %struct.CPUState, ptr %11, i32 0, i32 28
  %12 = load i32, ptr %num_ases, align 8
  %cmp = icmp slt i32 %10, %12
  br i1 %cmp, label %land.lhs.true, label %if.else

land.lhs.true:                                    ; preds = %if.then
  %13 = load i32, ptr %ret, align 4
  %cmp5 = icmp sge i32 %13, 0
  br i1 %cmp5, label %if.then6, label %if.else

if.then6:                                         ; preds = %land.lhs.true
  br label %if.end

if.else:                                          ; preds = %land.lhs.true, %if.then
  call void @__assert_fail(ptr noundef @.str.2, ptr noundef @.str, i32 noundef 76, ptr noundef @__PRETTY_FUNCTION__.cpu_asidx_from_attrs) #5
  unreachable

if.end:                                           ; preds = %if.then6
  br label %if.end7

if.end7:                                          ; preds = %if.end, %entry
  %14 = load i32, ptr %ret, align 4
  ret i32 %14
}