; Function Attrs: nounwind sspstrong uwtable
define dso_local range(i32 0, 2147483647) i32 @cpu_asidx_from_attrs(ptr noundef %cpu, i32 %attrs.coerce) local_unnamed_addr #0 {
entry:
  %cc = getelementptr inbounds nuw i8, ptr %cpu, i64 160
  %0 = load ptr, ptr %cc, align 16
  %sysemu_ops = getelementptr inbounds nuw i8, ptr %0, i64 320
  %1 = load ptr, ptr %sysemu_ops, align 8
  %asidx_from_attrs = getelementptr inbounds nuw i8, ptr %1, i64 32
  %2 = load ptr, ptr %asidx_from_attrs, align 8
  %tobool.not = icmp eq ptr %2, null
  br i1 %tobool.not, label %if.end7, label %if.then

if.then:                                          ; preds = %entry
  %call = tail call i32 %2(ptr noundef nonnull %cpu, i32 %attrs.coerce) #3
  %num_ases = getelementptr inbounds nuw i8, ptr %cpu, i64 520
  %3 = load i32, ptr %num_ases, align 8
  %cmp = icmp slt i32 %call, %3
  %cmp5 = icmp sgt i32 %call, -1
  %or.cond = and i1 %cmp5, %cmp
  br i1 %or.cond, label %if.end7, label %if.else

if.else:                                          ; preds = %if.then
  tail call void @__assert_fail(ptr noundef nonnull @.str.2, ptr noundef nonnull @.str, i32 noundef 76, ptr noundef nonnull @__PRETTY_FUNCTION__.cpu_asidx_from_attrs) #4
  unreachable

if.end7:                                          ; preds = %if.then, %entry
  %ret.0 = phi i32 [ %call, %if.then ], [ 0, %entry ]
  ret i32 %ret.0
}